target datalayout = "e-m:e-p270:32:32-p271:32:32-p272:64:64-i64:64-i128:128-f80:128-n8:16:32:64-S128"
target triple = "x86_64-unknown-linux-gnu"

%struct.ResourceData = type { ptr, ptr, ptr, ptr, i32, i32, ptr, i32, i32, i8, i8, i8, i8 }

; Function Attrs: mustprogress nounwind uwtable
define i32 @res_countArrayItems_75(ptr noundef %pResData, i32 noundef %res) #2 {
entry:
  %retval = alloca i32, align 4
  %pResData.addr = alloca ptr, align 8
  %res.addr = alloca i32, align 4
  %offset = alloca i32, align 4
  store ptr %pResData, ptr %pResData.addr, align 8
  store i32 %res, ptr %res.addr, align 4
  %0 = load i32, ptr %res.addr, align 4
  %and = and i32 %0, 268435455
  store i32 %and, ptr %offset, align 4
  %1 = load i32, ptr %res.addr, align 4
  %shr = lshr i32 %1, 28
  switch i32 %shr, label %sw.default [
    i32 0, label %sw.bb
    i32 6, label %sw.bb
    i32 1, label %sw.bb
    i32 3, label %sw.bb
    i32 7, label %sw.bb
    i32 14, label %sw.bb
    i32 8, label %sw.bb1
    i32 4, label %sw.bb1
    i32 2, label %sw.bb2
    i32 9, label %sw.bb11
    i32 5, label %sw.bb11
  ]

sw.bb:                                            ; preds = %entry, %entry, %entry, %entry, %entry, %entry
  store i32 1, ptr %retval, align 4
  br label %return

sw.bb1:                                           ; preds = %entry, %entry
  %2 = load i32, ptr %offset, align 4
  %cmp = icmp eq i32 %2, 0
  br i1 %cmp, label %cond.true, label %cond.false

cond.true:                                        ; preds = %sw.bb1
  br label %cond.end

cond.false:                                       ; preds = %sw.bb1
  %3 = load ptr, ptr %pResData.addr, align 8
  %pRoot = getelementptr inbounds %struct.ResourceData, ptr %3, i32 0, i32 1
  %4 = load ptr, ptr %pRoot, align 8
  %5 = load i32, ptr %offset, align 4
  %idx.ext = zext i32 %5 to i64
  %add.ptr = getelementptr inbounds i32, ptr %4, i64 %idx.ext
  %6 = load i32, ptr %add.ptr, align 4
  br label %cond.end

cond.end:                                         ; preds = %cond.false, %cond.true
  %cond = phi i32 [ 0, %cond.true ], [ %6, %cond.false ]
  store i32 %cond, ptr %retval, align 4
  br label %return

sw.bb2:                                           ; preds = %entry
  %7 = load i32, ptr %offset, align 4
  %cmp3 = icmp eq i32 %7, 0
  br i1 %cmp3, label %cond.true4, label %cond.false5

cond.true4:                                       ; preds = %sw.bb2
  br label %cond.end9

cond.false5:                                      ; preds = %sw.bb2
  %8 = load ptr, ptr %pResData.addr, align 8
  %pRoot6 = getelementptr inbounds %struct.ResourceData, ptr %8, i32 0, i32 1
  %9 = load ptr, ptr %pRoot6, align 8
  %10 = load i32, ptr %offset, align 4
  %idx.ext7 = zext i32 %10 to i64
  %add.ptr8 = getelementptr inbounds i32, ptr %9, i64 %idx.ext7
  %11 = load i16, ptr %add.ptr8, align 2
  %conv = zext i16 %11 to i32
  br label %cond.end9

cond.end9:                                        ; preds = %cond.false5, %cond.true4
  %cond10 = phi i32 [ 0, %cond.true4 ], [ %conv, %cond.false5 ]
  store i32 %cond10, ptr %retval, align 4
  br label %return

sw.bb11:                                          ; preds = %entry, %entry
  %12 = load ptr, ptr %pResData.addr, align 8
  %p16BitUnits = getelementptr inbounds %struct.ResourceData, ptr %12, i32 0, i32 2
  %13 = load ptr, ptr %p16BitUnits, align 8
  %14 = load i32, ptr %offset, align 4
  %idxprom = zext i32 %14 to i64
  %arrayidx = getelementptr inbounds i16, ptr %13, i64 %idxprom
  %15 = load i16, ptr %arrayidx, align 2
  %conv12 = zext i16 %15 to i32
  store i32 %conv12, ptr %retval, align 4
  br label %return

sw.default:                                       ; preds = %entry
  store i32 0, ptr %retval, align 4
  br label %return

return:                                           ; preds = %sw.default, %sw.bb11, %cond.end9, %cond.end, %sw.bb
  %16 = load i32, ptr %retval, align 4
  ret i32 %16
}