; Function Attrs: mustprogress nofree norecurse nosync nounwind willreturn memory(read, inaccessiblemem: none) uwtable
define i32 @res_countArrayItems_75(ptr nocapture noundef readonly %pResData, i32 noundef %res) local_unnamed_addr #6 {
entry:
  %and = and i32 %res, 268435455
  %shr = lshr i32 %res, 28
  switch i32 %shr, label %sw.default [
    i32 0, label %return
    i32 6, label %return
    i32 1, label %return
    i32 3, label %return
    i32 7, label %return
    i32 14, label %return
    i32 8, label %sw.bb1
    i32 4, label %sw.bb1
    i32 2, label %sw.bb2
    i32 9, label %sw.bb11
    i32 5, label %sw.bb11
  ]

sw.bb1:                                           ; preds = %entry, %entry
  %cmp = icmp eq i32 %and, 0
  br i1 %cmp, label %return, label %cond.false

cond.false:                                       ; preds = %sw.bb1
  %pRoot = getelementptr inbounds i8, ptr %pResData, i64 8
  %0 = load ptr, ptr %pRoot, align 8
  %idx.ext = zext nneg i32 %and to i64
  %add.ptr = getelementptr inbounds i32, ptr %0, i64 %idx.ext
  %1 = load i32, ptr %add.ptr, align 4
  br label %return

sw.bb2:                                           ; preds = %entry
  %cmp3 = icmp eq i32 %and, 0
  br i1 %cmp3, label %return, label %cond.false5

cond.false5:                                      ; preds = %sw.bb2
  %pRoot6 = getelementptr inbounds i8, ptr %pResData, i64 8
  %2 = load ptr, ptr %pRoot6, align 8
  %idx.ext7 = zext nneg i32 %and to i64
  %add.ptr8 = getelementptr inbounds i32, ptr %2, i64 %idx.ext7
  %3 = load i16, ptr %add.ptr8, align 2
  %conv = zext i16 %3 to i32
  br label %return

sw.bb11:                                          ; preds = %entry, %entry
  %p16BitUnits = getelementptr inbounds i8, ptr %pResData, i64 16
  %4 = load ptr, ptr %p16BitUnits, align 8
  %idxprom = zext nneg i32 %and to i64
  %arrayidx = getelementptr inbounds i16, ptr %4, i64 %idxprom
  %5 = load i16, ptr %arrayidx, align 2
  %conv12 = zext i16 %5 to i32
  br label %return

sw.default:                                       ; preds = %entry
  br label %return

return:                                           ; preds = %cond.false5, %sw.bb2, %cond.false, %sw.bb1, %entry, %entry, %entry, %entry, %entry, %entry, %sw.default, %sw.bb11
  %retval.0 = phi i32 [ 0, %sw.default ], [ %conv12, %sw.bb11 ], [ 1, %entry ], [ 1, %entry ], [ 1, %entry ], [ 1, %entry ], [ 1, %entry ], [ 1, %entry ], [ %1, %cond.false ], [ 0, %sw.bb1 ], [ %conv, %cond.false5 ], [ 0, %sw.bb2 ]
  ret i32 %retval.0
}